(lp0
ccopy_reg
_reconstructor
p1
(cpandas.core.frame
DataFrame
p2
c__builtin__
object
p3
Ntp4
Rp5
(dp6
S'_metadata'
p7
(lp8
sS'_typ'
p9
S'dataframe'
p10
sS'_data'
p11
g1
(cpandas.core.internals
BlockManager
p12
g3
Ntp13
Rp14
((lp15
cpandas.indexes.base
_new_Index
p16
(cpandas.indexes.base
Index
p17
(dp18
S'data'
p19
cnumpy.core.multiarray
_reconstruct
p20
(cnumpy
ndarray
p21
(I0
tp22
S'b'
p23
tp24
Rp25
(I1
(I3
tp26
cnumpy
dtype
p27
(S'O4'
p28
I0
I1
tp29
Rp30
(I3
S'|'
p31
NNNI-1
I-1
I63
tp32
bI00
(lp33
S'classifier'
p34
aS'sample'
p35
aS'entropy'
p36
atp37
bsS'name'
p38
Nstp39
Rp40
ag16
(cpandas.indexes.numeric
Int64Index
p41
(dp42
g19
g20
(g21
(I0
tp43
g23
tp44
Rp45
(I1
(I20
tp46
g27
(S'i8'
p47
I0
I1
tp48
Rp49
(I3
S'<'
p50
NNNI-1
I-1
I0
tp51
bI00
S'\r\x00\x00\x00\x00\x00\x00\x00\t\x00\x00\x00\x00\x00\x00\x00\x10\x00\x00\x00\x00\x00\x00\x00\n\x00\x00\x00\x00\x00\x00\x00\x02\x00\x00\x00\x00\x00\x00\x00\x11\x00\x00\x00\x00\x00\x00\x00\x06\x00\x00\x00\x00\x00\x00\x00\x13\x00\x00\x00\x00\x00\x00\x00\x12\x00\x00\x00\x00\x00\x00\x00\x07\x00\x00\x00\x00\x00\x00\x00\x0f\x00\x00\x00\x00\x00\x00\x00\x03\x00\x00\x00\x00\x00\x00\x00\x04\x00\x00\x00\x00\x00\x00\x00\x0e\x00\x00\x00\x00\x00\x00\x00\x08\x00\x00\x00\x00\x00\x00\x00\x0c\x00\x00\x00\x00\x00\x00\x00\x01\x00\x00\x00\x00\x00\x00\x00\x00\x00\x00\x00\x00\x00\x00\x00\x05\x00\x00\x00\x00\x00\x00\x00\x0b\x00\x00\x00\x00\x00\x00\x00'
p52
tp53
bsg38
Nstp54
Rp55
a(lp56
g20
(g21
(I0
tp57
g23
tp58
Rp59
(I1
(I1
I20
tp60
g27
(S'f8'
p61
I0
I1
tp62
Rp63
(I3
S'<'
p64
NNNI-1
I-1
I0
tp65
bI00
S"R\x81\xdc4'.\xe6?7g[U\xe9,\xe6?>z\xd7<B*\xe6?\x1aZ=\xc3\x8f'\xe6?\xd0\x9fk\xae>\x19\xe6?\x1c\xaa\xa3\x08m\t\xe6?*s\xf0\x1cP\x08\xe6?\xe9\xc1.\x0en\xe4\xe5?\xce[rv\xdf\x9c\xe5?\xcas.\xa1\xf2\x8e\xe5?\xa0\xb9v\x10~<\xe5?\x804\x89\xcb\xf6\x08\xe5?\xcf\x89\x87\xfdL\xea\xe4?\xd4\x17*\xbc\xef\x8a\xe4?X\x0c\xc88\xd0\x16\xe3?\xa5\xbb\x8f\x80\x1d\xeb\xe2?\x07\x87\xb4A\xd0\xb3\xe2?\xe8UQ!Hz\xe2?3e$\x1b}\xaf\xd6?\\\xae\x8a;\xdd\xc8\xae?"
p66
tp67
bag20
(g21
(I0
tp68
g23
tp69
Rp70
(I1
(I2
I20
tp71
g30
I00
(lp72
S'LogisticRegression'
p73
ag73
ag73
ag73
ag73
ag73
ag73
ag73
ag73
ag73
ag73
ag73
ag73
ag73
ag73
ag73
ag73
ag73
ag73
ag73
ag20
(g21
(I0
tp74
g23
tp75
Rp76
(I1
(I21
tp77
g30
I00
(lp78
F0.11561868800000001
aF0.077059979
aF0.102809266
aF0.050231640999999994
aF0.18892065100000002
aF0.138689009
aF2.053250584
aF8.190790788
aF0.960951615
aF0.7238100820000001
aF0.0979793
aF0.11561868800000001
aF0.097562195
aF0.016309888
aF0.271186441
aF0.294866071
aF0.0078125
aF4.3359375
aF4.328125
aF0.10920577599999999
aS'danish7'
p79
atp80
bag20
(g21
(I0
tp81
g23
tp82
Rp83
(I1
(I21
tp84
g30
I00
(lp85
F0.12291111199999999
aF0.07486789
aF0.11144596699999999
aF0.067762557
aF0.201156773
aF0.133394216
aF3.938108185
aF27.45937034
aF0.9323993629999999
aF0.6118265420000001
aF0.0
aF0.12291111199999999
aF0.121770478
aF0.016666667
aF0.275862069
aF0.129734848
aF0.0078125
aF1.1953125
aF1.1875
aF0.087860781
aS'english129'
p86
atp87
bag20
(g21
(I0
tp88
g23
tp89
Rp90
(I1
(I21
tp91
g30
I00
(lp92
F0.16834594600000002
aF0.074120817
aF0.145618472
aF0.11575591
aF0.239824079
aF0.124068169
aF2.7043347289999997
aF18.484702600000002
aF0.93452338
aF0.559742318
aF0.060032985
aF0.16834594600000002
aF0.083484022
aF0.015717092
aF0.231884058
aF0.1465625
aF0.0078125
aF3.125
aF3.1171875
aF0.059536597000000004
aS'amharic9'
p93
atp94
bag20
(g21
(I0
tp95
g23
tp96
Rp97
(I1
(I21
tp98
g30
I00
(lp99
F0.174272105
aF0.069411045
aF0.190874107
aF0.11560197900000001
aF0.22827927399999998
aF0.112677295
aF4.48503835
aF61.76490831
aF0.950972025
aF0.6351991779999999
aF0.050027487999999995
aF0.174272105
aF0.102045991
aF0.018327606
aF0.246153846
aF1.621299342
aF0.0078125
aF7.0
aF6.9921875
aF0.209310987
aS'amharic3'
p100
atp101
bag20
(g21
(I0
tp102
g23
tp103
Rp104
(I1
(I21
tp105
g30
I00
(lp106
F0.16950575899999998
aF0.066930404
aF0.14097053699999998
aF0.12447140400000001
aF0.242634315
aF0.118162912
aF2.384671522
aF10.23994843
aF0.919990545
aF0.48410065799999996
aF0.133934142
aF0.16950575899999998
aF0.110565779
aF0.017410229
aF0.26666666699999997
aF0.216145833
aF0.0078125
aF0.8359375
aF0.828125
aF0.143081761
aS'bengali14'
p107
atp108
bag20
(g21
(I0
tp109
g23
tp110
Rp111
(I1
(I21
tp112
g30
I00
(lp113
F0.122706013
aF0.08521585599999999
aF0.145738799
aF0.032030505
aF0.19912297399999998
aF0.167092469
aF1.483381558
aF4.788477557
aF0.9410221959999999
aF0.620470851
aF0.19351763600000002
aF0.122706013
aF0.187219205
aF0.032786885
aF0.23880597
aF0.6106085529999999
aF0.015625
aF3.7734375
aF3.7578125
aF0.19045969
aS'arabic31'
p114
atp115
bag20
(g21
(I0
tp116
g23
tp117
Rp118
(I1
(I21
tp119
g30
I00
(lp120
F0.134991571
aF0.063945217
aF0.10726810699999999
aF0.087166455
aF0.188208386
aF0.101041931
aF2.634624639
aF11.23616147
aF0.932629565
aF0.572082175
aF0.083964422
aF0.134991571
aF0.084462071
aF0.016064257
aF0.258064516
aF0.233705357
aF0.0078125
aF3.3203125
aF3.3125
aF0.097214033
aS'english42'
p121
atp122
bag20
(g21
(I0
tp123
g23
tp124
Rp125
(I1
(I21
tp126
g30
I00
(lp127
F0.19600602
aF0.053930062
aF0.20338389699999998
aF0.15404900800000002
aF0.239323221
aF0.08527421199999999
aF4.038263467
aF50.59146239
aF0.927145397
aF0.29627712
aF0.090011669
aF0.19600602
aF0.081017495
aF0.015810277
aF0.19512195100000002
aF0.147273936
aF0.09375
aF0.375
aF0.28125
aF0.176328502
aS'armenian7'
p128
atp129
bag20
(g21
(I0
tp130
g23
tp131
Rp132
(I1
(I21
tp133
g30
I00
(lp134
F0.16861288600000002
aF0.053763393
aF0.17911450399999998
aF0.167572519
aF0.19535877899999998
aF0.02778626
aF3.5249027560000004
aF17.31994483
aF0.85607933
aF0.375274881
aF0.17911450399999998
aF0.16861288600000002
aF0.169659735
aF0.01816118
aF0.205128205
aF0.25830078100000003
aF0.15625
aF0.796875
aF0.640625
aF0.133333333
aS'english192'
p135
atp136
bag20
(g21
(I0
tp137
g23
tp138
Rp139
(I1
(I21
tp140
g30
I00
(lp141
F0.137549749
aF0.08473122400000001
aF0.15828408
aF0.053117255
aF0.21540514800000002
aF0.16228789300000002
aF1.3692545580000002
aF5.277752875
aF0.963713763
aF0.7438342790000001
aF0.218608198
aF0.137549749
aF0.201460313
aF0.069264069
aF0.275862069
aF0.534667969
aF0.0078125
aF3.1640625
aF3.15625
aF0.203630363
aS'bulgarian2'
p142
atp143
bag20
(g21
(I0
tp144
g23
tp145
Rp146
(I1
(I21
tp147
g30
I00
(lp148
F0.16331310599999999
aF0.064859684
aF0.149953632
aF0.11165378699999999
aF0.22698609
aF0.11533230300000001
aF1.801983649
aF6.461428412999999
aF0.9376486470000001
aF0.577806756
aF0.116846986
aF0.16331310599999999
aF0.10184148
aF0.015655577
aF0.26666666699999997
aF0.272518382
aF0.0078125
aF0.6640625
aF0.65625
aF0.423809524
aS'bosnian1'
p149
atp150
bag20
(g21
(I0
tp151
g23
tp152
Rp153
(I1
(I21
tp154
g30
I00
(lp155
F0.151096729
aF0.086332357
aF0.183914209
aF0.061054513
aF0.22119749800000002
aF0.160142985
aF1.659774515
aF6.155128014
aF0.9586036809999999
aF0.710823643
aF0.207184987
aF0.151096729
aF0.187886795
aF0.041994751
aF0.24242424199999998
aF0.298233696
aF0.015625
aF0.8515625
aF0.8359375
aF0.244325768
aS'azerbaijani2'
p156
atp157
bag20
(g21
(I0
tp158
g23
tp159
Rp160
(I1
(I21
tp161
g30
I00
(lp162
F0.15531325
aF0.090998604
aF0.19004766399999998
aF0.052049570999999996
aF0.231687321
aF0.17963775
aF1.449626425
aF5.057423137
aF0.9504598609999999
aF0.662099342
aF0.23035271699999998
aF0.15531325
aF0.201392431
aF0.017316017
aF0.275862069
aF0.373798077
aF0.0078125
aF0.984375
aF0.9765625
aF0.2528
aS'cantonese18'
p163
atp164
bag20
(g21
(I0
tp165
g23
tp166
Rp167
(I1
(I21
tp168
g30
I00
(lp169
F0.16485512800000002
aF0.08768972800000001
aF0.20057211
aF0.073087008
aF0.23561382600000003
aF0.16252681800000002
aF1.1785037409999999
aF3.7833598139999998
aF0.9513011229999999
aF0.668714942
aF0.199570918
aF0.16485512800000002
aF0.203222504
aF0.0625
aF0.258064516
aF0.44196428600000004
aF0.0234375
aF1.078125
aF1.0546875
aF0.266096866
aS'cantonese16'
p170
atp171
bag20
(g21
(I0
tp172
g23
tp173
Rp174
(I1
(I21
tp175
g30
I00
(lp176
F0.183371888
aF0.034567903
aF0.17948051899999998
aF0.164415584
aF0.202597403
aF0.038181818
aF2.235463465
aF8.101767002
aF0.861210975
aF0.251207091
aF0.16389610400000001
aF0.183371888
aF0.14915747099999999
aF0.024502297000000003
aF0.207792208
aF0.473090278
aF0.15625
aF6.890625
aF6.734375
aF0.097169374
aS'english132'
p177
atp178
bag20
(g21
(I0
tp179
g23
tp180
Rp181
(I1
(I21
tp182
g30
I00
(lp183
F0.186647078
aF0.042361314000000004
aF0.18441495800000002
aF0.17158021699999998
aF0.207044632
aF0.035464415
aF2.73291839
aF11.16205962
aF0.8443389920000001
aF0.231123565
aF0.17495778
aF0.186647078
aF0.179598108
aF0.024169184
aF0.25
aF0.949609375
aF0.171875
aF6.8671875
aF6.6953125
aF0.219984032
aS'english184'
p184
atp185
bag20
(g21
(I0
tp186
g23
tp187
Rp188
(I1
(I21
tp189
g30
I00
(lp190
F0.163613717
aF0.053700625
aF0.168602151
aF0.156344086
aF0.18516129
aF0.028817204
aF3.615702412
aF18.60642007
aF0.889855437
aF0.47041691799999996
aF0.164946237
aF0.163613717
aF0.164476848
aF0.042895442
aF0.231884058
aF0.7405790440000001
aF0.03125
aF7.0
aF6.96875
aF0.162929746
aS'english32'
p191
atp192
bag20
(g21
(I0
tp193
g23
tp194
Rp195
(I1
(I21
tp196
g30
I00
(lp197
F0.181751694
aF0.034710325
aF0.177226754
aF0.164437194
aF0.195954323
aF0.031517129
aF3.33144767
aF17.08238111
aF0.82999189
aF0.24532304600000002
aF0.164437194
aF0.181751694
aF0.175220155
aF0.060836502
aF0.275862069
aF0.557291667
aF0.1640625
aF5.828125
aF5.6640625
aF0.144334975
aS'english50'
p198
atp199
bag20
(g21
(I0
tp200
g23
tp201
Rp202
(I1
(I21
tp203
g30
I00
(lp204
F0.174297912
aF0.072622833
aF0.178299845
aF0.103647604
aF0.246027821
aF0.142380216
aF15.55340374
aF331.37748
aF0.9252995270000001
aF0.523065785
aF0.059938175999999996
aF0.174297912
aF0.089304959
aF0.015825915
aF0.246153846
aF0.16488486800000002
aF0.0703125
aF0.828125
aF0.7578125
aF0.111582777
aS'dutch28'
p205
atp206
bag20
(g21
(I0
tp207
g23
tp208
Rp209
(I1
(I21
tp210
g30
I00
(lp211
F0.119976656
aF0.08147064799999999
aF0.109892473
aF0.060215054000000004
aF0.192688172
aF0.132473118
aF22.40086595
aF560.1227892999999
aF0.854878206
aF0.505371009
aF0.0
aF0.119976656
aF0.081201173
aF0.015794669
aF0.262295082
aF0.0078125
aF0.0078125
aF0.0078125
aF0.0
aF0.0
aS'bengali7'
p212
atp213
batp214
ba(lp215
g16
(g17
(dp216
g19
g20
(g21
(I0
tp217
g23
tp218
Rp219
(I1
(I1
tp220
g30
I00
(lp221
g36
atp222
bsg38
Nstp223
Rp224
ag16
(g17
(dp225
g19
g20
(g21
(I0
tp226
g23
tp227
Rp228
(I1
(I2
tp229
g30
I00
(lp230
g34
ag35
atp231
bsg38
Nstp232
Rp233
a(dp234
S'0.14.1'
p235
(dp236
S'axes'
p237
g15
sS'blocks'
p238
(lp239
(dp240
S'mgr_locs'
p241
c__builtin__
slice
p242
(L2L
L3L
I1
tp243
Rp244
sS'values'
p245
g59
sa(dp246
g241
g242
(I0
I2
L1L
tp247
Rp248
sg245
g70
sasstp249
bsbag1
(g2
g3
Ntp250
Rp251
(dp252
g7
g8
sg9
g10
sg11
g1
(g12
g3
Ntp253
Rp254
((lp255
g16
(g17
(dp256
g19
g20
(g21
(I0
tp257
g23
tp258
Rp259
(I1
(I3
tp260
g30
I00
(lp261
g34
ag35
ag36
atp262
bsg38
Nstp263
Rp264
ag16
(g41
(dp265
g19
g20
(g21
(I0
tp266
g23
tp267
Rp268
(I1
(I20
tp269
g49
I00
S'\x0b\x00\x00\x00\x00\x00\x00\x00\x0f\x00\x00\x00\x00\x00\x00\x00\x0e\x00\x00\x00\x00\x00\x00\x00\x11\x00\x00\x00\x00\x00\x00\x00\n\x00\x00\x00\x00\x00\x00\x00\r\x00\x00\x00\x00\x00\x00\x00\x04\x00\x00\x00\x00\x00\x00\x00\x07\x00\x00\x00\x00\x00\x00\x00\x03\x00\x00\x00\x00\x00\x00\x00\x10\x00\x00\x00\x00\x00\x00\x00\x06\x00\x00\x00\x00\x00\x00\x00\x02\x00\x00\x00\x00\x00\x00\x00\x05\x00\x00\x00\x00\x00\x00\x00\x13\x00\x00\x00\x00\x00\x00\x00\t\x00\x00\x00\x00\x00\x00\x00\x08\x00\x00\x00\x00\x00\x00\x00\x0c\x00\x00\x00\x00\x00\x00\x00\x01\x00\x00\x00\x00\x00\x00\x00\x12\x00\x00\x00\x00\x00\x00\x00\x00\x00\x00\x00\x00\x00\x00\x00'
p270
tp271
bsg38
Nstp272
Rp273
a(lp274
g20
(g21
(I0
tp275
g23
tp276
Rp277
(I1
(I1
I20
tp278
g63
I00
S'\xb25\\&\x12\x10\xe6?\xa2\xd1\x0c\xa7\xa4\x02\xe6?\xc6T5\x16\x92\xfd\xe5?\x9cZ\x8d\xf7\xd6\xfb\xe5?\x00\x06\xed\xce\xa6\xfb\xe5?mN\x00Yn\xfb\xe5?Z\x8c\x05\x1f\x04\xfb\xe5?\x13\x96)r\xf3\xfa\xe5?2>}"!\xf9\xe5?\xecSBu\xf3\xf4\xe5?1S\x80\xf2*\xf1\xe5?>\xb2i~$\xf1\xe5?ZN\xed\xd0\xa9\xed\xe5?$\tX\x1fA\xed\xe5?`w\xfb\xe1\x8f\xea\xe5?\xba\xb2\xec\x18\xae\xda\xe5?\xc8\xbaa8&\xd5\xe5?^z\xf4C\xbf\xd2\xe5?\xdf\xc82\xab?\xc9\xe5?\xc6\xa0@\x8e]\xc8\xe5?'
p279
tp280
bag20
(g21
(I0
tp281
g23
tp282
Rp283
(I1
(I2
I20
tp284
g30
I00
(lp285
S'SVC'
p286
ag286
ag286
ag286
ag286
ag286
ag286
ag286
ag286
ag286
ag286
ag286
ag286
ag286
ag286
ag286
ag286
ag286
ag286
ag286
ag20
(g21
(I0
tp287
g23
tp288
Rp289
(I1
(I21
tp290
g30
I00
(lp291
F0.119976656
aF0.08147064799999999
aF0.109892473
aF0.060215054000000004
aF0.192688172
aF0.132473118
aF22.40086595
aF560.1227892999999
aF0.854878206
aF0.505371009
aF0.0
aF0.119976656
aF0.081201173
aF0.015794669
aF0.262295082
aF0.0078125
aF0.0078125
aF0.0078125
aF0.0
aF0.0
ag212
atp292
bag20
(g21
(I0
tp293
g23
tp294
Rp295
(I1
(I21
tp296
g30
I00
(lp297
F0.16331310599999999
aF0.064859684
aF0.149953632
aF0.11165378699999999
aF0.22698609
aF0.11533230300000001
aF1.801983649
aF6.461428412999999
aF0.9376486470000001
aF0.577806756
aF0.116846986
aF0.16331310599999999
aF0.10184148
aF0.015655577
aF0.26666666699999997
aF0.272518382
aF0.0078125
aF0.6640625
aF0.65625
aF0.423809524
ag149
atp298
bag20
(g21
(I0
tp299
g23
tp300
Rp301
(I1
(I21
tp302
g30
I00
(lp303
F0.16485512800000002
aF0.08768972800000001
aF0.20057211
aF0.073087008
aF0.23561382600000003
aF0.16252681800000002
aF1.1785037409999999
aF3.7833598139999998
aF0.9513011229999999
aF0.668714942
aF0.199570918
aF0.16485512800000002
aF0.203222504
aF0.0625
aF0.258064516
aF0.44196428600000004
aF0.0234375
aF1.078125
aF1.0546875
aF0.266096866
ag170
atp304
bag20
(g21
(I0
tp305
g23
tp306
Rp307
(I1
(I21
tp308
g30
I00
(lp309
F0.122706013
aF0.08521585599999999
aF0.145738799
aF0.032030505
aF0.19912297399999998
aF0.167092469
aF1.483381558
aF4.788477557
aF0.9410221959999999
aF0.620470851
aF0.19351763600000002
aF0.122706013
aF0.187219205
aF0.032786885
aF0.23880597
aF0.6106085529999999
aF0.015625
aF3.7734375
aF3.7578125
aF0.19045969
ag114
atp310
bag20
(g21
(I0
tp311
g23
tp312
Rp313
(I1
(I21
tp314
g30
I00
(lp315
F0.174272105
aF0.069411045
aF0.190874107
aF0.11560197900000001
aF0.22827927399999998
aF0.112677295
aF4.48503835
aF61.76490831
aF0.950972025
aF0.6351991779999999
aF0.050027487999999995
aF0.174272105
aF0.102045991
aF0.018327606
aF0.246153846
aF1.621299342
aF0.0078125
aF7.0
aF6.9921875
aF0.209310987
ag100
atp316
bag20
(g21
(I0
tp317
g23
tp318
Rp319
(I1
(I21
tp320
g30
I00
(lp321
F0.11561868800000001
aF0.077059979
aF0.102809266
aF0.050231640999999994
aF0.18892065100000002
aF0.138689009
aF2.053250584
aF8.190790788
aF0.960951615
aF0.7238100820000001
aF0.0979793
aF0.11561868800000001
aF0.097562195
aF0.016309888
aF0.271186441
aF0.294866071
aF0.0078125
aF4.3359375
aF4.328125
aF0.10920577599999999
ag79
atp322
bag20
(g21
(I0
tp323
g23
tp324
Rp325
(I1
(I21
tp326
g30
I00
(lp327
F0.15531325
aF0.090998604
aF0.19004766399999998
aF0.052049570999999996
aF0.231687321
aF0.17963775
aF1.449626425
aF5.057423137
aF0.9504598609999999
aF0.662099342
aF0.23035271699999998
aF0.15531325
aF0.201392431
aF0.017316017
aF0.275862069
aF0.373798077
aF0.0078125
aF0.984375
aF0.9765625
aF0.2528
ag163
atp328
bag20
(g21
(I0
tp329
g23
tp330
Rp331
(I1
(I21
tp332
g30
I00
(lp333
F0.137549749
aF0.08473122400000001
aF0.15828408
aF0.053117255
aF0.21540514800000002
aF0.16228789300000002
aF1.3692545580000002
aF5.277752875
aF0.963713763
aF0.7438342790000001
aF0.218608198
aF0.137549749
aF0.201460313
aF0.069264069
aF0.275862069
aF0.534667969
aF0.0078125
aF3.1640625
aF3.15625
aF0.203630363
ag142
atp334
bag20
(g21
(I0
tp335
g23
tp336
Rp337
(I1
(I21
tp338
g30
I00
(lp339
F0.151096729
aF0.086332357
aF0.183914209
aF0.061054513
aF0.22119749800000002
aF0.160142985
aF1.659774515
aF6.155128014
aF0.9586036809999999
aF0.710823643
aF0.207184987
aF0.151096729
aF0.187886795
aF0.041994751
aF0.24242424199999998
aF0.298233696
aF0.015625
aF0.8515625
aF0.8359375
aF0.244325768
ag156
atp340
bag20
(g21
(I0
tp341
g23
tp342
Rp343
(I1
(I21
tp344
g30
I00
(lp345
F0.16834594600000002
aF0.074120817
aF0.145618472
aF0.11575591
aF0.239824079
aF0.124068169
aF2.7043347289999997
aF18.484702600000002
aF0.93452338
aF0.559742318
aF0.060032985
aF0.16834594600000002
aF0.083484022
aF0.015717092
aF0.231884058
aF0.1465625
aF0.0078125
aF3.125
aF3.1171875
aF0.059536597000000004
ag93
atp346
bag20
(g21
(I0
tp347
g23
tp348
Rp349
(I1
(I21
tp350
g30
I00
(lp351
F0.134991571
aF0.063945217
aF0.10726810699999999
aF0.087166455
aF0.188208386
aF0.101041931
aF2.634624639
aF11.23616147
aF0.932629565
aF0.572082175
aF0.083964422
aF0.134991571
aF0.084462071
aF0.016064257
aF0.258064516
aF0.233705357
aF0.0078125
aF3.3203125
aF3.3125
aF0.097214033
ag121
atp352
bag20
(g21
(I0
tp353
g23
tp354
Rp355
(I1
(I21
tp356
g30
I00
(lp357
F0.16950575899999998
aF0.066930404
aF0.14097053699999998
aF0.12447140400000001
aF0.242634315
aF0.118162912
aF2.384671522
aF10.23994843
aF0.919990545
aF0.48410065799999996
aF0.133934142
aF0.16950575899999998
aF0.110565779
aF0.017410229
aF0.26666666699999997
aF0.216145833
aF0.0078125
aF0.8359375
aF0.828125
aF0.143081761
ag107
atp358
bag20
(g21
(I0
tp359
g23
tp360
Rp361
(I1
(I21
tp362
g30
I00
(lp363
F0.174297912
aF0.072622833
aF0.178299845
aF0.103647604
aF0.246027821
aF0.142380216
aF15.55340374
aF331.37748
aF0.9252995270000001
aF0.523065785
aF0.059938175999999996
aF0.174297912
aF0.089304959
aF0.015825915
aF0.246153846
aF0.16488486800000002
aF0.0703125
aF0.828125
aF0.7578125
aF0.111582777
ag205
atp364
bag20
(g21
(I0
tp365
g23
tp366
Rp367
(I1
(I21
tp368
g30
I00
(lp369
F0.19600602
aF0.053930062
aF0.20338389699999998
aF0.15404900800000002
aF0.239323221
aF0.08527421199999999
aF4.038263467
aF50.59146239
aF0.927145397
aF0.29627712
aF0.090011669
aF0.19600602
aF0.081017495
aF0.015810277
aF0.19512195100000002
aF0.147273936
aF0.09375
aF0.375
aF0.28125
aF0.176328502
ag128
atp370
bag20
(g21
(I0
tp371
g23
tp372
Rp373
(I1
(I21
tp374
g30
I00
(lp375
F0.12291111199999999
aF0.07486789
aF0.11144596699999999
aF0.067762557
aF0.201156773
aF0.133394216
aF3.938108185
aF27.45937034
aF0.9323993629999999
aF0.6118265420000001
aF0.0
aF0.12291111199999999
aF0.121770478
aF0.016666667
aF0.275862069
aF0.129734848
aF0.0078125
aF1.1953125
aF1.1875
aF0.087860781
ag86
atp376
bag20
(g21
(I0
tp377
g23
tp378
Rp379
(I1
(I21
tp380
g30
I00
(lp381
F0.183371888
aF0.034567903
aF0.17948051899999998
aF0.164415584
aF0.202597403
aF0.038181818
aF2.235463465
aF8.101767002
aF0.861210975
aF0.251207091
aF0.16389610400000001
aF0.183371888
aF0.14915747099999999
aF0.024502297000000003
aF0.207792208
aF0.473090278
aF0.15625
aF6.890625
aF6.734375
aF0.097169374
ag177
atp382
bag20
(g21
(I0
tp383
g23
tp384
Rp385
(I1
(I21
tp386
g30
I00
(lp387
F0.186647078
aF0.042361314000000004
aF0.18441495800000002
aF0.17158021699999998
aF0.207044632
aF0.035464415
aF2.73291839
aF11.16205962
aF0.8443389920000001
aF0.231123565
aF0.17495778
aF0.186647078
aF0.179598108
aF0.024169184
aF0.25
aF0.949609375
aF0.171875
aF6.8671875
aF6.6953125
aF0.219984032
ag184
atp388
bag20
(g21
(I0
tp389
g23
tp390
Rp391
(I1
(I21
tp392
g30
I00
(lp393
F0.163613717
aF0.053700625
aF0.168602151
aF0.156344086
aF0.18516129
aF0.028817204
aF3.615702412
aF18.60642007
aF0.889855437
aF0.47041691799999996
aF0.164946237
aF0.163613717
aF0.164476848
aF0.042895442
aF0.231884058
aF0.7405790440000001
aF0.03125
aF7.0
aF6.96875
aF0.162929746
ag191
atp394
bag20
(g21
(I0
tp395
g23
tp396
Rp397
(I1
(I21
tp398
g30
I00
(lp399
F0.16861288600000002
aF0.053763393
aF0.17911450399999998
aF0.167572519
aF0.19535877899999998
aF0.02778626
aF3.5249027560000004
aF17.31994483
aF0.85607933
aF0.375274881
aF0.17911450399999998
aF0.16861288600000002
aF0.169659735
aF0.01816118
aF0.205128205
aF0.25830078100000003
aF0.15625
aF0.796875
aF0.640625
aF0.133333333
ag135
atp400
bag20
(g21
(I0
tp401
g23
tp402
Rp403
(I1
(I21
tp404
g30
I00
(lp405
F0.181751694
aF0.034710325
aF0.177226754
aF0.164437194
aF0.195954323
aF0.031517129
aF3.33144767
aF17.08238111
aF0.82999189
aF0.24532304600000002
aF0.164437194
aF0.181751694
aF0.175220155
aF0.060836502
aF0.275862069
aF0.557291667
aF0.1640625
aF5.828125
aF5.6640625
aF0.144334975
ag198
atp406
batp407
ba(lp408
g16
(g17
(dp409
g19
g20
(g21
(I0
tp410
g23
tp411
Rp412
(I1
(I1
tp413
g30
I00
(lp414
g36
atp415
bsg38
Nstp416
Rp417
ag16
(g17
(dp418
g19
g20
(g21
(I0
tp419
g23
tp420
Rp421
(I1
(I2
tp422
g30
I00
(lp423
g34
ag35
atp424
bsg38
Nstp425
Rp426
a(dp427
g235
(dp428
g237
g255
sg238
(lp429
(dp430
g241
g242
(L2L
L3L
I1
tp431
Rp432
sg245
g277
sa(dp433
g241
g242
(I0
I2
L1L
tp434
Rp435
sg245
g283
sasstp436
bsbag1
(g2
g3
Ntp437
Rp438
(dp439
g7
g8
sg9
g10
sg11
g1
(g12
g3
Ntp440
Rp441
((lp442
g16
(g17
(dp443
g19
g20
(g21
(I0
tp444
g23
tp445
Rp446
(I1
(I3
tp447
g30
I00
(lp448
g34
ag35
ag36
atp449
bsg38
Nstp450
Rp451
ag16
(g41
(dp452
g19
g20
(g21
(I0
tp453
g23
tp454
Rp455
(I1
(I20
tp456
g49
I00
S'\t\x00\x00\x00\x00\x00\x00\x00\x02\x00\x00\x00\x00\x00\x00\x00\x11\x00\x00\x00\x00\x00\x00\x00\x10\x00\x00\x00\x00\x00\x00\x00\x05\x00\x00\x00\x00\x00\x00\x00\x06\x00\x00\x00\x00\x00\x00\x00\x07\x00\x00\x00\x00\x00\x00\x00\n\x00\x00\x00\x00\x00\x00\x00\r\x00\x00\x00\x00\x00\x00\x00\x0e\x00\x00\x00\x00\x00\x00\x00\x13\x00\x00\x00\x00\x00\x00\x00\x01\x00\x00\x00\x00\x00\x00\x00\x04\x00\x00\x00\x00\x00\x00\x00\x03\x00\x00\x00\x00\x00\x00\x00\x0b\x00\x00\x00\x00\x00\x00\x00\x0c\x00\x00\x00\x00\x00\x00\x00\x08\x00\x00\x00\x00\x00\x00\x00\x0f\x00\x00\x00\x00\x00\x00\x00\x12\x00\x00\x00\x00\x00\x00\x00\x00\x00\x00\x00\x00\x00\x00\x00'
p457
tp458
bsg38
Nstp459
Rp460
a(lp461
g20
(g21
(I0
tp462
g23
tp463
Rp464
(I1
(I1
I20
tp465
g63
I00
S'\t\xd4\xf3J3\x8c\xe3?\xe8\xf0}\xf1K\x03\xe0?\xe8\xf0}\xf1K\x03\xe0?\xe8\xf0}\xf1K\x03\xe0?\xe8\xf0}\xf1K\x03\xe0?\xe8\xf0}\xf1K\x03\xe0?\xe8\xf0}\xf1K\x03\xe0?,\xf9\xcc\xd0(\xce\xd4?,\xf9\xcc\xd0(\xce\xd4?,\xf9\xcc\xd0(\xce\xd4?,\xf9\xcc\xd0(\xce\xd4?,\xf9\xcc\xd0(\xce\xd4?,\xf9\xcc\xd0(\xce\xd4?,\xf9\xcc\xd0(\xce\xd4?\x00\x00\x00\x00\x00\x00\x00\x00\x00\x00\x00\x00\x00\x00\x00\x00\x00\x00\x00\x00\x00\x00\x00\x00\x00\x00\x00\x00\x00\x00\x00\x00\x00\x00\x00\x00\x00\x00\x00\x00\x00\x00\x00\x00\x00\x00\x00\x00'
p466
tp467
bag20
(g21
(I0
tp468
g23
tp469
Rp470
(I1
(I2
I20
tp471
g30
I00
(lp472
S'RandomForestClassifier'
p473
ag473
ag473
ag473
ag473
ag473
ag473
ag473
ag473
ag473
ag473
ag473
ag473
ag473
ag473
ag473
ag473
ag473
ag473
ag473
ag20
(g21
(I0
tp474
g23
tp475
Rp476
(I1
(I21
tp477
g30
I00
(lp478
F0.12291111199999999
aF0.07486789
aF0.11144596699999999
aF0.067762557
aF0.201156773
aF0.133394216
aF3.938108185
aF27.45937034
aF0.9323993629999999
aF0.6118265420000001
aF0.0
aF0.12291111199999999
aF0.121770478
aF0.016666667
aF0.275862069
aF0.129734848
aF0.0078125
aF1.1953125
aF1.1875
aF0.087860781
ag86
atp479
bag20
(g21
(I0
tp480
g23
tp481
Rp482
(I1
(I21
tp483
g30
I00
(lp484
F0.16950575899999998
aF0.066930404
aF0.14097053699999998
aF0.12447140400000001
aF0.242634315
aF0.118162912
aF2.384671522
aF10.23994843
aF0.919990545
aF0.48410065799999996
aF0.133934142
aF0.16950575899999998
aF0.110565779
aF0.017410229
aF0.26666666699999997
aF0.216145833
aF0.0078125
aF0.8359375
aF0.828125
aF0.143081761
ag107
atp485
bag20
(g21
(I0
tp486
g23
tp487
Rp488
(I1
(I21
tp489
g30
I00
(lp490
F0.122706013
aF0.08521585599999999
aF0.145738799
aF0.032030505
aF0.19912297399999998
aF0.167092469
aF1.483381558
aF4.788477557
aF0.9410221959999999
aF0.620470851
aF0.19351763600000002
aF0.122706013
aF0.187219205
aF0.032786885
aF0.23880597
aF0.6106085529999999
aF0.015625
aF3.7734375
aF3.7578125
aF0.19045969
ag114
atp491
bag20
(g21
(I0
tp492
g23
tp493
Rp494
(I1
(I21
tp495
g30
I00
(lp496
F0.16834594600000002
aF0.074120817
aF0.145618472
aF0.11575591
aF0.239824079
aF0.124068169
aF2.7043347289999997
aF18.484702600000002
aF0.93452338
aF0.559742318
aF0.060032985
aF0.16834594600000002
aF0.083484022
aF0.015717092
aF0.231884058
aF0.1465625
aF0.0078125
aF3.125
aF3.1171875
aF0.059536597000000004
ag93
atp497
bag20
(g21
(I0
tp498
g23
tp499
Rp500
(I1
(I21
tp501
g30
I00
(lp502
F0.174297912
aF0.072622833
aF0.178299845
aF0.103647604
aF0.246027821
aF0.142380216
aF15.55340374
aF331.37748
aF0.9252995270000001
aF0.523065785
aF0.059938175999999996
aF0.174297912
aF0.089304959
aF0.015825915
aF0.246153846
aF0.16488486800000002
aF0.0703125
aF0.828125
aF0.7578125
aF0.111582777
ag205
atp503
bag20
(g21
(I0
tp504
g23
tp505
Rp506
(I1
(I21
tp507
g30
I00
(lp508
F0.134991571
aF0.063945217
aF0.10726810699999999
aF0.087166455
aF0.188208386
aF0.101041931
aF2.634624639
aF11.23616147
aF0.932629565
aF0.572082175
aF0.083964422
aF0.134991571
aF0.084462071
aF0.016064257
aF0.258064516
aF0.233705357
aF0.0078125
aF3.3203125
aF3.3125
aF0.097214033
ag121
atp509
bag20
(g21
(I0
tp510
g23
tp511
Rp512
(I1
(I21
tp513
g30
I00
(lp514
F0.137549749
aF0.08473122400000001
aF0.15828408
aF0.053117255
aF0.21540514800000002
aF0.16228789300000002
aF1.3692545580000002
aF5.277752875
aF0.963713763
aF0.7438342790000001
aF0.218608198
aF0.137549749
aF0.201460313
aF0.069264069
aF0.275862069
aF0.534667969
aF0.0078125
aF3.1640625
aF3.15625
aF0.203630363
ag142
atp515
bag20
(g21
(I0
tp516
g23
tp517
Rp518
(I1
(I21
tp519
g30
I00
(lp520
F0.174272105
aF0.069411045
aF0.190874107
aF0.11560197900000001
aF0.22827927399999998
aF0.112677295
aF4.48503835
aF61.76490831
aF0.950972025
aF0.6351991779999999
aF0.050027487999999995
aF0.174272105
aF0.102045991
aF0.018327606
aF0.246153846
aF1.621299342
aF0.0078125
aF7.0
aF6.9921875
aF0.209310987
ag100
atp521
bag20
(g21
(I0
tp522
g23
tp523
Rp524
(I1
(I21
tp525
g30
I00
(lp526
F0.11561868800000001
aF0.077059979
aF0.102809266
aF0.050231640999999994
aF0.18892065100000002
aF0.138689009
aF2.053250584
aF8.190790788
aF0.960951615
aF0.7238100820000001
aF0.0979793
aF0.11561868800000001
aF0.097562195
aF0.016309888
aF0.271186441
aF0.294866071
aF0.0078125
aF4.3359375
aF4.328125
aF0.10920577599999999
ag79
atp527
bag20
(g21
(I0
tp528
g23
tp529
Rp530
(I1
(I21
tp531
g30
I00
(lp532
F0.16485512800000002
aF0.08768972800000001
aF0.20057211
aF0.073087008
aF0.23561382600000003
aF0.16252681800000002
aF1.1785037409999999
aF3.7833598139999998
aF0.9513011229999999
aF0.668714942
aF0.199570918
aF0.16485512800000002
aF0.203222504
aF0.0625
aF0.258064516
aF0.44196428600000004
aF0.0234375
aF1.078125
aF1.0546875
aF0.266096866
ag170
atp533
bag20
(g21
(I0
tp534
g23
tp535
Rp536
(I1
(I21
tp537
g30
I00
(lp538
F0.19600602
aF0.053930062
aF0.20338389699999998
aF0.15404900800000002
aF0.239323221
aF0.08527421199999999
aF4.038263467
aF50.59146239
aF0.927145397
aF0.29627712
aF0.090011669
aF0.19600602
aF0.081017495
aF0.015810277
aF0.19512195100000002
aF0.147273936
aF0.09375
aF0.375
aF0.28125
aF0.176328502
ag128
atp539
bag20
(g21
(I0
tp540
g23
tp541
Rp542
(I1
(I21
tp543
g30
I00
(lp544
F0.163613717
aF0.053700625
aF0.168602151
aF0.156344086
aF0.18516129
aF0.028817204
aF3.615702412
aF18.60642007
aF0.889855437
aF0.47041691799999996
aF0.164946237
aF0.163613717
aF0.164476848
aF0.042895442
aF0.231884058
aF0.7405790440000001
aF0.03125
aF7.0
aF6.96875
aF0.162929746
ag191
atp545
bag20
(g21
(I0
tp546
g23
tp547
Rp548
(I1
(I21
tp549
g30
I00
(lp550
F0.15531325
aF0.090998604
aF0.19004766399999998
aF0.052049570999999996
aF0.231687321
aF0.17963775
aF1.449626425
aF5.057423137
aF0.9504598609999999
aF0.662099342
aF0.23035271699999998
aF0.15531325
aF0.201392431
aF0.017316017
aF0.275862069
aF0.373798077
aF0.0078125
aF0.984375
aF0.9765625
aF0.2528
ag163
atp551
bag20
(g21
(I0
tp552
g23
tp553
Rp554
(I1
(I21
tp555
g30
I00
(lp556
F0.151096729
aF0.086332357
aF0.183914209
aF0.061054513
aF0.22119749800000002
aF0.160142985
aF1.659774515
aF6.155128014
aF0.9586036809999999
aF0.710823643
aF0.207184987
aF0.151096729
aF0.187886795
aF0.041994751
aF0.24242424199999998
aF0.298233696
aF0.015625
aF0.8515625
aF0.8359375
aF0.244325768
ag156
atp557
bag20
(g21
(I0
tp558
g23
tp559
Rp560
(I1
(I21
tp561
g30
I00
(lp562
F0.119976656
aF0.08147064799999999
aF0.109892473
aF0.060215054000000004
aF0.192688172
aF0.132473118
aF22.40086595
aF560.1227892999999
aF0.854878206
aF0.505371009
aF0.0
aF0.119976656
aF0.081201173
aF0.015794669
aF0.262295082
aF0.0078125
aF0.0078125
aF0.0078125
aF0.0
aF0.0
ag212
atp563
bag20
(g21
(I0
tp564
g23
tp565
Rp566
(I1
(I21
tp567
g30
I00
(lp568
F0.186647078
aF0.042361314000000004
aF0.18441495800000002
aF0.17158021699999998
aF0.207044632
aF0.035464415
aF2.73291839
aF11.16205962
aF0.8443389920000001
aF0.231123565
aF0.17495778
aF0.186647078
aF0.179598108
aF0.024169184
aF0.25
aF0.949609375
aF0.171875
aF6.8671875
aF6.6953125
aF0.219984032
ag184
atp569
bag20
(g21
(I0
tp570
g23
tp571
Rp572
(I1
(I21
tp573
g30
I00
(lp574
F0.183371888
aF0.034567903
aF0.17948051899999998
aF0.164415584
aF0.202597403
aF0.038181818
aF2.235463465
aF8.101767002
aF0.861210975
aF0.251207091
aF0.16389610400000001
aF0.183371888
aF0.14915747099999999
aF0.024502297000000003
aF0.207792208
aF0.473090278
aF0.15625
aF6.890625
aF6.734375
aF0.097169374
ag177
atp575
bag20
(g21
(I0
tp576
g23
tp577
Rp578
(I1
(I21
tp579
g30
I00
(lp580
F0.16331310599999999
aF0.064859684
aF0.149953632
aF0.11165378699999999
aF0.22698609
aF0.11533230300000001
aF1.801983649
aF6.461428412999999
aF0.9376486470000001
aF0.577806756
aF0.116846986
aF0.16331310599999999
aF0.10184148
aF0.015655577
aF0.26666666699999997
aF0.272518382
aF0.0078125
aF0.6640625
aF0.65625
aF0.423809524
ag149
atp581
bag20
(g21
(I0
tp582
g23
tp583
Rp584
(I1
(I21
tp585
g30
I00
(lp586
F0.16861288600000002
aF0.053763393
aF0.17911450399999998
aF0.167572519
aF0.19535877899999998
aF0.02778626
aF3.5249027560000004
aF17.31994483
aF0.85607933
aF0.375274881
aF0.17911450399999998
aF0.16861288600000002
aF0.169659735
aF0.01816118
aF0.205128205
aF0.25830078100000003
aF0.15625
aF0.796875
aF0.640625
aF0.133333333
ag135
atp587
bag20
(g21
(I0
tp588
g23
tp589
Rp590
(I1
(I21
tp591
g30
I00
(lp592
F0.181751694
aF0.034710325
aF0.177226754
aF0.164437194
aF0.195954323
aF0.031517129
aF3.33144767
aF17.08238111
aF0.82999189
aF0.24532304600000002
aF0.164437194
aF0.181751694
aF0.175220155
aF0.060836502
aF0.275862069
aF0.557291667
aF0.1640625
aF5.828125
aF5.6640625
aF0.144334975
ag198
atp593
batp594
ba(lp595
g16
(g17
(dp596
g19
g20
(g21
(I0
tp597
g23
tp598
Rp599
(I1
(I1
tp600
g30
I00
(lp601
g36
atp602
bsg38
Nstp603
Rp604
ag16
(g17
(dp605
g19
g20
(g21
(I0
tp606
g23
tp607
Rp608
(I1
(I2
tp609
g30
I00
(lp610
g34
ag35
atp611
bsg38
Nstp612
Rp613
a(dp614
g235
(dp615
g237
g442
sg238
(lp616
(dp617
g241
g242
(L2L
L3L
I1
tp618
Rp619
sg245
g464
sa(dp620
g241
g242
(I0
I2
L1L
tp621
Rp622
sg245
g470
sasstp623
bsba.