(lp0
(dp1
S'name'
p2
S'english129'
p3
sS'clip'
p4
S'static/datafiles/audiofiles/english129.mp3'
p5
sa(dp6
g2
S'bengali14'
p7
sg4
S'static/datafiles/audiofiles/bengali14.mp3'
p8
sa(dp9
g2
S'arabic31'
p10
sg4
S'static/datafiles/audiofiles/arabic31.mp3'
p11
sa(dp12
g2
S'amharic9'
p13
sg4
S'static/datafiles/audiofiles/amharic9.mp3'
p14
sa(dp15
g2
S'dutch28'
p16
sg4
S'static/datafiles/audiofiles/dutch28.mp3'
p17
sa.