(lp0
(dp1
S'name'
p2
S'bengali7'
p3
sS'clip'
p4
S'static/datafiles/audiofiles/bengali7.mp3'
p5
sa(dp6
g2
S'bosnian1'
p7
sg4
S'static/datafiles/audiofiles/bosnian1.mp3'
p8
sa(dp9
g2
S'cantonese16'
p10
sg4
S'static/datafiles/audiofiles/cantonese16.mp3'
p11
sa(dp12
g2
S'arabic31'
p13
sg4
S'static/datafiles/audiofiles/arabic31.mp3'
p14
sa(dp15
g2
S'amharic3'
p16
sg4
S'static/datafiles/audiofiles/amharic3.mp3'
p17
sa.